libcpprspserver.so.2 libcpprspserver2 #MINVER#
 _ZN13TCPLikeServer11poolElementEPKcS1_P8rsp_infoP12rsp_loadinfomPFPS_iPvjEPFvPKvEPFviEPFbS7_EPFvS7_EPFddES7_PK8sockaddrmjjbbP7TagItem@Base 2.7.8
 _ZN13TCPLikeServer13finishSessionE19EventHandlingResult@Base 2.7.8
 _ZN13TCPLikeServer13handleMessageEPKcmjt@Base 2.7.8
 _ZN13TCPLikeServer14syncTimerEventEy@Base 2.7.8
 _ZN13TCPLikeServer15asyncTimerEventEy@Base 2.7.8
 _ZN13TCPLikeServer16handleCookieEchoEPKcm@Base 2.7.8
 _ZN13TCPLikeServer17initializeSessionEv@Base 2.7.8
 _ZN13TCPLikeServer18handleNotificationEPK21rserpool_notification@Base 2.7.8
 _ZN13TCPLikeServer3runEv@Base 2.7.8
 _ZN13TCPLikeServer7setLoadEd@Base 2.7.8
 _ZN13TCPLikeServer8shutdownEv@Base 2.7.8
 _ZN13TCPLikeServerC1Ei@Base 2.7.8
 _ZN13TCPLikeServerC2Ei@Base 2.7.8
 _ZN13TCPLikeServerD0Ev@Base 2.7.8
 _ZN13TCPLikeServerD1Ev@Base 2.7.8
 _ZN13TCPLikeServerD2Ev@Base 2.7.8
 _ZN13UDPLikeServer10startTimerEy@Base 2.7.8
 _ZN13UDPLikeServer11handleTimerEv@Base 2.7.8
 _ZN13UDPLikeServer11poolElementEPKcS1_P8rsp_infoP12rsp_loadinfoPK8sockaddrmjjbbP7TagItem@Base 2.7.8
 _ZN13UDPLikeServer13finishServiceEi19EventHandlingResult@Base 2.7.8
 _ZN13UDPLikeServer13handleMessageEiPKcmjt@Base 2.7.8
 _ZN13UDPLikeServer13waitForActionEy@Base 2.7.8
 _ZN13UDPLikeServer15printParametersEv@Base 2.7.8
 _ZN13UDPLikeServer16handleCookieEchoEiPKcm@Base 2.7.8
 _ZN13UDPLikeServer17initializeServiceEij@Base 2.7.8
 _ZN13UDPLikeServer18handleNotificationEPK21rserpool_notification@Base 2.7.8
 _ZN13UDPLikeServer7setLoadEd@Base 2.7.8
 _ZN13UDPLikeServer9stopTimerEv@Base 2.7.8
 _ZN13UDPLikeServerC1Ev@Base 2.7.8
 _ZN13UDPLikeServerC2Ev@Base 2.7.8
 _ZN13UDPLikeServerD0Ev@Base 2.7.8
 _ZN13UDPLikeServerD1Ev@Base 2.7.8
 _ZN13UDPLikeServerD2Ev@Base 2.7.8
 _ZN17TCPLikeServerList10getThreadsEv@Base 2.7.8
 _ZN17TCPLikeServerList12getTotalLoadEv@Base 2.7.8
 _ZN17TCPLikeServerList23handleRemovalsAndTimersEv@Base 2.7.8
 _ZN17TCPLikeServerList3addEP13TCPLikeServer@Base 2.7.8
 _ZN17TCPLikeServerList6removeEP13TCPLikeServer@Base 2.7.8
 _ZN17TCPLikeServerList9removeAllEv@Base 2.7.8
 _ZN17TCPLikeServerListC1Emi@Base 2.7.8
 _ZN17TCPLikeServerListC2Emi@Base 2.7.8
 _ZN17TCPLikeServerListD0Ev@Base 2.7.8
 _ZN17TCPLikeServerListD1Ev@Base 2.7.8
 _ZN17TCPLikeServerListD2Ev@Base 2.7.8
 _ZNK13TCPLikeServer7getLoadEv@Base 2.7.8
 _ZNK13UDPLikeServer7getLoadEv@Base 2.7.8
 _ZTI13TCPLikeServer@Base 2.7.8
 _ZTI13UDPLikeServer@Base 2.7.8
 _ZTI17TCPLikeServerList@Base 2.7.8
 _ZTS13TCPLikeServer@Base 2.7.8
 _ZTS13UDPLikeServer@Base 2.7.8
 _ZTS17TCPLikeServerList@Base 2.7.8
 _ZTV13TCPLikeServer@Base 2.7.8
 _ZTV13UDPLikeServer@Base 2.7.8
 _ZTV17TCPLikeServerList@Base 2.7.8
libtdcppthread.so.2 libcpprspserver2 #MINVER#
 _ZN7TDMutexC1Ev@Base 2.7.8
 _ZN7TDMutexC2Ev@Base 2.7.8
 _ZN7TDMutexD0Ev@Base 2.7.8
 _ZN7TDMutexD1Ev@Base 2.7.8
 _ZN7TDMutexD2Ev@Base 2.7.8
 _ZN8TDThread12startRoutineEPv@Base 2.7.8
 _ZN8TDThread13waitForFinishEv@Base 2.7.8
 _ZN8TDThread4stopEv@Base 2.7.8
 _ZN8TDThread5delayEj@Base 2.7.8
 _ZN8TDThread5startEv@Base 2.7.8
 _ZN8TDThreadC1Ev@Base 2.7.8
 _ZN8TDThreadC2Ev@Base 2.7.8
 _ZN8TDThreadD0Ev@Base 2.7.8
 _ZN8TDThreadD1Ev@Base 2.7.8
 _ZN8TDThreadD2Ev@Base 2.7.8
 _ZTI7TDMutex@Base 2.7.8
 _ZTI8TDThread@Base 2.7.8
 _ZTS7TDMutex@Base 2.7.8
 _ZTS8TDThread@Base 2.7.8
 _ZTV7TDMutex@Base 2.7.8
 _ZTV8TDThread@Base 2.7.8
